target datalayout = "e-m:e-p270:32:32-p271:32:32-p272:64:64-i64:64-i128:128-f80:128-n8:16:32:64-S128"
target triple = "x86_64-pc-linux-gnu"

%"class.google::protobuf::internal::InternalMetadata" = type { i64 }
%"class.google::protobuf::internal::HasBits" = type { [1 x i32] }
%"class.google::protobuf::Message" = type { %"class.google::protobuf::MessageLite" }
%"class.google::protobuf::MessageLite" = type { ptr, %"class.google::protobuf::internal::InternalMetadata" }
%"struct.std::atomic" = type { %"struct.std::__atomic_base" }
%"struct.std::__atomic_base" = type { i32 }
%"class.google::protobuf::internal::CachedSize" = type { %"struct.std::atomic" }
%"class.opencv_caffe::LogParameter" = type <{ %"class.google::protobuf::Message", %"class.google::protobuf::internal::HasBits", %"class.google::protobuf::internal::CachedSize", float, float, float, [4 x i8] }>

; Function Attrs: inlinehint mustprogress nounwind uwtable
define linkonce_odr void @_ZSt4swapIlENSt9enable_ifIXsr6__and_ISt6__not_ISt15__is_tuple_likeIT_EESt21is_move_constructibleIS3_ESt18is_move_assignableIS3_EEE5valueEvE4typeERS3_SC_(ptr noundef nonnull align 8 dereferenceable(8) %0, ptr noundef nonnull align 8 dereferenceable(8) %1) #7 comdat {
  %3 = alloca ptr, align 8
  %4 = alloca ptr, align 8
  %5 = alloca i64, align 8
  store ptr %0, ptr %3, align 8, !tbaa !420
  store ptr %1, ptr %4, align 8, !tbaa !420
  call void @llvm.lifetime.start.p0(i64 8, ptr %5) #3
  %6 = load ptr, ptr %3, align 8, !tbaa !420
  %7 = load i64, ptr %6, align 8, !tbaa !59
  store i64 %7, ptr %5, align 8, !tbaa !59
  %8 = load ptr, ptr %4, align 8, !tbaa !420
  %9 = load i64, ptr %8, align 8, !tbaa !59
  %10 = load ptr, ptr %3, align 8, !tbaa !420
  store i64 %9, ptr %10, align 8, !tbaa !59
  %11 = load i64, ptr %5, align 8, !tbaa !59
  %12 = load ptr, ptr %4, align 8, !tbaa !420
  store i64 %11, ptr %12, align 8, !tbaa !59
  call void @llvm.lifetime.end.p0(i64 8, ptr %5) #3
  ret void
}

; Function Attrs: inlinehint mustprogress nounwind uwtable
define linkonce_odr void @_ZSt4swapIfENSt9enable_ifIXsr6__and_ISt6__not_ISt15__is_tuple_likeIT_EESt21is_move_constructibleIS3_ESt18is_move_assignableIS3_EEE5valueEvE4typeERS3_SC_(ptr noundef nonnull align 4 dereferenceable(4) %0, ptr noundef nonnull align 4 dereferenceable(4) %1) #7 comdat {
  %3 = alloca ptr, align 8
  %4 = alloca ptr, align 8
  %5 = alloca float, align 4
  store ptr %0, ptr %3, align 8, !tbaa !186
  store ptr %1, ptr %4, align 8, !tbaa !186
  call void @llvm.lifetime.start.p0(i64 4, ptr %5) #3
  %6 = load ptr, ptr %3, align 8, !tbaa !186
  %7 = load float, ptr %6, align 4, !tbaa !112
  store float %7, ptr %5, align 4, !tbaa !112
  %8 = load ptr, ptr %4, align 8, !tbaa !186
  %9 = load float, ptr %8, align 4, !tbaa !112
  %10 = load ptr, ptr %3, align 8, !tbaa !186
  store float %9, ptr %10, align 4, !tbaa !112
  %11 = load float, ptr %5, align 4, !tbaa !112
  %12 = load ptr, ptr %4, align 8, !tbaa !186
  store float %11, ptr %12, align 4, !tbaa !112
  call void @llvm.lifetime.end.p0(i64 4, ptr %5) #3
  ret void
}

; Function Attrs: inlinehint mustprogress nounwind uwtable
define linkonce_odr void @_ZSt4swapIjENSt9enable_ifIXsr6__and_ISt6__not_ISt15__is_tuple_likeIT_EESt21is_move_constructibleIS3_ESt18is_move_assignableIS3_EEE5valueEvE4typeERS3_SC_(ptr noundef nonnull align 4 dereferenceable(4) %0, ptr noundef nonnull align 4 dereferenceable(4) %1) #7 comdat {
  %3 = alloca ptr, align 8
  %4 = alloca ptr, align 8
  %5 = alloca i32, align 4
  store ptr %0, ptr %3, align 8, !tbaa !53
  store ptr %1, ptr %4, align 8, !tbaa !53
  call void @llvm.lifetime.start.p0(i64 4, ptr %5) #3
  %6 = load ptr, ptr %3, align 8, !tbaa !53
  %7 = load i32, ptr %6, align 4, !tbaa !8
  store i32 %7, ptr %5, align 4, !tbaa !8
  %8 = load ptr, ptr %4, align 8, !tbaa !53
  %9 = load i32, ptr %8, align 4, !tbaa !8
  %10 = load ptr, ptr %3, align 8, !tbaa !53
  store i32 %9, ptr %10, align 4, !tbaa !8
  %11 = load i32, ptr %5, align 4, !tbaa !8
  %12 = load ptr, ptr %4, align 8, !tbaa !53
  store i32 %11, ptr %12, align 4, !tbaa !8
  call void @llvm.lifetime.end.p0(i64 4, ptr %5) #3
  ret void
}

; Function Attrs: alwaysinline mustprogress nounwind uwtable
define linkonce_odr hidden noundef nonnull align 4 dereferenceable(4) ptr @_ZN6google8protobuf8internal7HasBitsILm1EEixEi(ptr noundef nonnull align 4 dereferenceable(4) %0, i32 noundef %1) #13 comdat align 2 {
  %3 = alloca ptr, align 8
  %4 = alloca i32, align 4
  store ptr %0, ptr %3, align 8, !tbaa !87
  store i32 %1, ptr %4, align 4, !tbaa !8
  %5 = load ptr, ptr %3, align 8
  %6 = getelementptr inbounds nuw %"class.google::protobuf::internal::HasBits", ptr %5, i32 0, i32 0
  %7 = load i32, ptr %4, align 4, !tbaa !8
  %8 = sext i32 %7 to i64
  %9 = getelementptr inbounds [1 x i32], ptr %6, i64 0, i64 %8
  ret ptr %9
}

; Function Attrs: alwaysinline mustprogress nounwind uwtable
define linkonce_odr hidden void @_ZN6google8protobuf8internal16InternalMetadata12InternalSwapEPS2_(ptr noundef nonnull align 8 dereferenceable(8) %0, ptr noundef %1) #13 comdat align 2 {
  %3 = alloca ptr, align 8
  %4 = alloca ptr, align 8
  store ptr %0, ptr %3, align 8, !tbaa !32
  store ptr %1, ptr %4, align 8, !tbaa !32
  %5 = load ptr, ptr %3, align 8
  %6 = getelementptr inbounds nuw %"class.google::protobuf::internal::InternalMetadata", ptr %5, i32 0, i32 0
  %7 = load ptr, ptr %4, align 8, !tbaa !32
  %8 = getelementptr inbounds nuw %"class.google::protobuf::internal::InternalMetadata", ptr %7, i32 0, i32 0
  call void @_ZSt4swapIlENSt9enable_ifIXsr6__and_ISt6__not_ISt15__is_tuple_likeIT_EESt21is_move_constructibleIS3_ESt18is_move_assignableIS3_EEE5valueEvE4typeERS3_SC_(ptr noundef nonnull align 8 dereferenceable(8) %6, ptr noundef nonnull align 8 dereferenceable(8) %8) #3
  ret void
}

; Function Attrs: mustprogress uwtable
define hidden void @_ZN12opencv_caffe12LogParameter12InternalSwapEPS0_(ptr noundef nonnull align 8 dereferenceable(40) %0, ptr noundef %1) #4 align 2 {
  %3 = alloca ptr, align 8
  %4 = alloca ptr, align 8
  store ptr %0, ptr %3, align 8, !tbaa !823
  store ptr %1, ptr %4, align 8, !tbaa !823
  %5 = load ptr, ptr %3, align 8
  %6 = getelementptr inbounds nuw %"class.google::protobuf::MessageLite", ptr %5, i32 0, i32 1
  %7 = load ptr, ptr %4, align 8, !tbaa !823
  %8 = getelementptr inbounds nuw %"class.google::protobuf::MessageLite", ptr %7, i32 0, i32 1
  call void @_ZN6google8protobuf8internal16InternalMetadata12InternalSwapEPS2_(ptr noundef nonnull align 8 dereferenceable(8) %6, ptr noundef %8)
  %9 = getelementptr inbounds nuw %"class.opencv_caffe::LogParameter", ptr %5, i32 0, i32 1
  %10 = call noundef nonnull align 4 dereferenceable(4) ptr @_ZN6google8protobuf8internal7HasBitsILm1EEixEi(ptr noundef nonnull align 4 dereferenceable(4) %9, i32 noundef 0)
  %11 = load ptr, ptr %4, align 8, !tbaa !823
  %12 = getelementptr inbounds nuw %"class.opencv_caffe::LogParameter", ptr %11, i32 0, i32 1
  %13 = call noundef nonnull align 4 dereferenceable(4) ptr @_ZN6google8protobuf8internal7HasBitsILm1EEixEi(ptr noundef nonnull align 4 dereferenceable(4) %12, i32 noundef 0)
  call void @_ZSt4swapIjENSt9enable_ifIXsr6__and_ISt6__not_ISt15__is_tuple_likeIT_EESt21is_move_constructibleIS3_ESt18is_move_assignableIS3_EEE5valueEvE4typeERS3_SC_(ptr noundef nonnull align 4 dereferenceable(4) %10, ptr noundef nonnull align 4 dereferenceable(4) %13) #3
  %14 = getelementptr inbounds nuw %"class.opencv_caffe::LogParameter", ptr %5, i32 0, i32 3
  %15 = load ptr, ptr %4, align 8, !tbaa !823
  %16 = getelementptr inbounds nuw %"class.opencv_caffe::LogParameter", ptr %15, i32 0, i32 3
  call void @_ZSt4swapIfENSt9enable_ifIXsr6__and_ISt6__not_ISt15__is_tuple_likeIT_EESt21is_move_constructibleIS3_ESt18is_move_assignableIS3_EEE5valueEvE4typeERS3_SC_(ptr noundef nonnull align 4 dereferenceable(4) %14, ptr noundef nonnull align 4 dereferenceable(4) %16) #3
  %17 = getelementptr inbounds nuw %"class.opencv_caffe::LogParameter", ptr %5, i32 0, i32 4
  %18 = load ptr, ptr %4, align 8, !tbaa !823
  %19 = getelementptr inbounds nuw %"class.opencv_caffe::LogParameter", ptr %18, i32 0, i32 4
  call void @_ZSt4swapIfENSt9enable_ifIXsr6__and_ISt6__not_ISt15__is_tuple_likeIT_EESt21is_move_constructibleIS3_ESt18is_move_assignableIS3_EEE5valueEvE4typeERS3_SC_(ptr noundef nonnull align 4 dereferenceable(4) %17, ptr noundef nonnull align 4 dereferenceable(4) %19) #3
  %20 = getelementptr inbounds nuw %"class.opencv_caffe::LogParameter", ptr %5, i32 0, i32 5
  %21 = load ptr, ptr %4, align 8, !tbaa !823
  %22 = getelementptr inbounds nuw %"class.opencv_caffe::LogParameter", ptr %21, i32 0, i32 5
  call void @_ZSt4swapIfENSt9enable_ifIXsr6__and_ISt6__not_ISt15__is_tuple_likeIT_EESt21is_move_constructibleIS3_ESt18is_move_assignableIS3_EEE5valueEvE4typeERS3_SC_(ptr noundef nonnull align 4 dereferenceable(4) %20, ptr noundef nonnull align 4 dereferenceable(4) %22) #3
  ret void
}